; Function Attrs: mustprogress nofree norecurse nosync nounwind willreturn memory(argmem: write) uwtable
define void @ossl_blake2s_param_init(ptr noundef writeonly captures(none) initializes((0, 32)) %0) local_unnamed_addr #0 {
  store i8 32, ptr %0, align 1, !tbaa !3
  %2 = getelementptr inbounds nuw i8, ptr %0, i64 1
  store i8 0, ptr %2, align 1, !tbaa !7
  %3 = getelementptr inbounds nuw i8, ptr %0, i64 2
  store i8 1, ptr %3, align 1, !tbaa !8
  %4 = getelementptr inbounds nuw i8, ptr %0, i64 3
  store i8 1, ptr %4, align 1, !tbaa !9
  %5 = getelementptr inbounds nuw i8, ptr %0, i64 4
  tail call void @llvm.memset.p0.i64(ptr noundef nonnull align 1 dereferenceable(28) %5, i8 0, i64 28, i1 false)
  ret void
}